; Function Attrs: mustprogress uwtable
define void @_ZN5folly10SSLContext21setVerificationOptionERKNS0_17SSLVerifyPeerEnumE(ptr noundef nonnull writeonly align 8 captures(none) dereferenceable(304) %0, ptr noundef nonnull readonly align 4 captures(none) dereferenceable(4) %1) unnamed_addr #2 align 2 personality ptr @__gxx_personality_v0 {
  %3 = alloca %"class.google::LogMessageFatal", align 8
  %4 = load i32, ptr %1, align 4, !tbaa !84
  %.not = icmp eq i32 %4, 0
  br i1 %.not, label %5, label %.critedge, !prof !85

5:                                                ; preds = %2
  call void @llvm.lifetime.start.p0(i64 16, ptr nonnull %3) #29
  call void @_ZN6google15LogMessageFatalC1EPKci(ptr noundef nonnull align 8 dereferenceable(16) %3, ptr noundef nonnull @.str.3, i32 noundef 220)
  %6 = invoke noundef nonnull align 8 dereferenceable(8) ptr @_ZN6google10LogMessage6streamEv(ptr noundef nonnull align 8 dereferenceable(16) %3)
          to label %7 unwind label %9

7:                                                ; preds = %5
  %8 = invoke noundef nonnull align 8 dereferenceable(8) ptr @_ZSt16__ostream_insertIcSt11char_traitsIcEERSt13basic_ostreamIT_T0_ES6_PKS3_l(ptr noundef nonnull align 8 dereferenceable(8) %6, ptr noundef nonnull @.str.41, i64 noundef 55)
          to label %_ZStlsISt11char_traitsIcEERSt13basic_ostreamIcT_ES5_PKc.exit unwind label %9

_ZStlsISt11char_traitsIcEERSt13basic_ostreamIcT_ES5_PKc.exit: ; preds = %7
  call void @_ZN6google15LogMessageFatalD1Ev(ptr noundef nonnull align 8 dereferenceable(16) %3) #33
  unreachable

9:                                                ; preds = %7, %5
  %10 = landingpad { ptr, i32 }
          cleanup
  call void @_ZN6google15LogMessageFatalD1Ev(ptr noundef nonnull align 8 dereferenceable(16) %3) #33
  unreachable

.critedge:                                        ; preds = %2
  %11 = getelementptr inbounds nuw i8, ptr %0, i64 16
  store i32 %4, ptr %11, align 8, !tbaa !86
  ret void
}